; Function Attrs: mustprogress uwtable
define dso_local noundef i64 @_ZNK6mygame6person12ByteSizeLongEv(ptr noundef nonnull align 8 dereferenceable(48) %this) unnamed_addr #3 align 2 personality ptr @__gxx_personality_v0 {
entry:
  %name_.i.i = getelementptr inbounds i8, ptr %this, i64 16
  %0 = load ptr, ptr %name_.i.i, align 8
  %_M_string_length.i = getelementptr inbounds i8, ptr %0, i64 8
  %1 = load i64, ptr %_M_string_length.i, align 8
  %cmp.not = icmp eq i64 %1, 0
  br i1 %cmp.not, label %if.end, label %if.then

if.then:                                          ; preds = %entry
  %conv.i.i = trunc i64 %1 to i32
  %or.i.i.i = or i32 %conv.i.i, 1
  %2 = tail call i32 @llvm.ctlz.i32(i32 %or.i.i.i, i1 true), !range !9
  %xor.i.i.i.i = xor i32 %2, 31
  %mul.i.i.i = mul nuw nsw i32 %xor.i.i.i.i, 9
  %add.i.i.i = add nuw nsw i32 %mul.i.i.i, 73
  %div1.i.i.i = lshr i32 %add.i.i.i, 6
  %conv.i.i.i = zext nneg i32 %div1.i.i.i to i64
  %add.i.i = add i64 %1, 1
  %add = add i64 %add.i.i, %conv.i.i.i
  br label %if.end

if.end:                                           ; preds = %if.then, %entry
  %total_size.0 = phi i64 [ %add, %if.then ], [ 0, %entry ]
  %id_.i.i = getelementptr inbounds i8, ptr %this, i64 24
  %3 = load i32, ptr %id_.i.i, align 8
  %cmp7.not = icmp eq i32 %3, 0
  br i1 %cmp7.not, label %if.end13, label %if.then8

if.then8:                                         ; preds = %if.end
  %cmp.i.i = icmp slt i32 %3, 0
  br i1 %cmp.i.i, label %_ZN6google8protobuf8internal14WireFormatLite9Int32SizeEi.exit, label %if.else.i.i

if.else.i.i:                                      ; preds = %if.then8
  %or.i.i.i8 = or i32 %3, 1
  %4 = tail call i32 @llvm.ctlz.i32(i32 %or.i.i.i8, i1 true), !range !9
  %xor.i.i.i.i9 = xor i32 %4, 31
  %mul.i.i.i10 = mul nuw nsw i32 %xor.i.i.i.i9, 9
  %add.i.i.i11 = add nuw nsw i32 %mul.i.i.i10, 73
  %div1.i.i.i12 = lshr i32 %add.i.i.i11, 6
  %narrow = add nuw nsw i32 %div1.i.i.i12, 1
  %5 = zext nneg i32 %narrow to i64
  br label %_ZN6google8protobuf8internal14WireFormatLite9Int32SizeEi.exit

_ZN6google8protobuf8internal14WireFormatLite9Int32SizeEi.exit: ; preds = %if.then8, %if.else.i.i
  %retval.0.i.i = phi i64 [ %5, %if.else.i.i ], [ 11, %if.then8 ]
  %add12 = add i64 %retval.0.i.i, %total_size.0
  br label %if.end13

if.end13:                                         ; preds = %_ZN6google8protobuf8internal14WireFormatLite9Int32SizeEi.exit, %if.end
  %total_size.1 = phi i64 [ %add12, %_ZN6google8protobuf8internal14WireFormatLite9Int32SizeEi.exit ], [ %total_size.0, %if.end ]
  %age_.i.i = getelementptr inbounds i8, ptr %this, i64 28
  %6 = load i32, ptr %age_.i.i, align 4
  %cmp15.not = icmp eq i32 %6, 0
  br i1 %cmp15.not, label %if.end21, label %if.then16

if.then16:                                        ; preds = %if.end13
  %cmp.i.i14 = icmp slt i32 %6, 0
  br i1 %cmp.i.i14, label %_ZN6google8protobuf8internal14WireFormatLite9Int32SizeEi.exit23, label %if.else.i.i15

if.else.i.i15:                                    ; preds = %if.then16
  %or.i.i.i16 = or i32 %6, 1
  %7 = tail call i32 @llvm.ctlz.i32(i32 %or.i.i.i16, i1 true), !range !9
  %xor.i.i.i.i17 = xor i32 %7, 31
  %mul.i.i.i18 = mul nuw nsw i32 %xor.i.i.i.i17, 9
  %add.i.i.i19 = add nuw nsw i32 %mul.i.i.i18, 73
  %div1.i.i.i20 = lshr i32 %add.i.i.i19, 6
  %narrow25 = add nuw nsw i32 %div1.i.i.i20, 1
  %8 = zext nneg i32 %narrow25 to i64
  br label %_ZN6google8protobuf8internal14WireFormatLite9Int32SizeEi.exit23

_ZN6google8protobuf8internal14WireFormatLite9Int32SizeEi.exit23: ; preds = %if.then16, %if.else.i.i15
  %retval.0.i.i22 = phi i64 [ %8, %if.else.i.i15 ], [ 11, %if.then16 ]
  %add20 = add i64 %retval.0.i.i22, %total_size.1
  br label %if.end21

if.end21:                                         ; preds = %_ZN6google8protobuf8internal14WireFormatLite9Int32SizeEi.exit23, %if.end13
  %total_size.2 = phi i64 [ %add20, %_ZN6google8protobuf8internal14WireFormatLite9Int32SizeEi.exit23 ], [ %total_size.1, %if.end13 ]
  %salary_.i.i = getelementptr inbounds i8, ptr %this, i64 32
  %9 = load double, ptr %salary_.i.i, align 8
  %or.cond = fcmp une double %9, 0.000000e+00
  %add27 = add i64 %total_size.2, 9
  %total_size.3 = select i1 %or.cond, i64 %add27, i64 %total_size.2
  %_internal_metadata_ = getelementptr inbounds i8, ptr %this, i64 8
  %10 = load ptr, ptr %_internal_metadata_, align 8
  %11 = ptrtoint ptr %10 to i64
  %conv.i7 = and i64 %11, 1
  %cmp.i.not = icmp eq i64 %conv.i7, 0
  br i1 %cmp.i.not, label %if.end33, label %if.then30

if.then30:                                        ; preds = %if.end21
  %_cached_size_ = getelementptr inbounds i8, ptr %this, i64 40
  %call32 = tail call noundef i64 @_ZN6google8protobuf8internal24ComputeUnknownFieldsSizeERKNS1_16InternalMetadataEmPNS1_10CachedSizeE(ptr noundef nonnull align 8 dereferenceable(8) %_internal_metadata_, i64 noundef %total_size.3, ptr noundef nonnull %_cached_size_)
  br label %return

if.end33:                                         ; preds = %if.end21
  %conv.i = trunc i64 %total_size.3 to i32
  %_cached_size_.i = getelementptr inbounds i8, ptr %this, i64 40
  store atomic i32 %conv.i, ptr %_cached_size_.i monotonic, align 8
  br label %return

return:                                           ; preds = %if.end33, %if.then30
  %retval.0 = phi i64 [ %call32, %if.then30 ], [ %total_size.3, %if.end33 ]
  ret i64 %retval.0
}